target datalayout = "e-m:e-p270:32:32-p271:32:32-p272:64:64-i64:64-i128:128-f80:128-n8:16:32:64-S128"
target triple = "x86_64-pc-linux-gnu"

%struct._lv_bar_t = type { %struct._lv_obj_t, i32, i32, i32, i32, %struct.lv_area_t, i8, %struct._lv_bar_anim_t, %struct._lv_bar_anim_t, i8 }
%struct._lv_obj_t = type { ptr, ptr, ptr, ptr, ptr, %struct.lv_area_t, i32, i16, i16 }
%struct.lv_area_t = type { i32, i32, i32, i32 }
%struct._lv_bar_anim_t = type { ptr, i32, i32, i32 }

; Function Attrs: nounwind uwtable
define void @lv_bar_set_mode(ptr noundef %0, i32 noundef %1) #0 {
  %3 = alloca ptr, align 8
  %4 = alloca i32, align 4
  %5 = alloca ptr, align 8
  store ptr %0, ptr %3, align 8, !tbaa !3
  store i32 %1, ptr %4, align 4, !tbaa !23
  br label %6

6:                                                ; preds = %2
  br label %7

7:                                                ; preds = %6
  call void @llvm.lifetime.start.p0(i64 8, ptr %5) #5
  %8 = load ptr, ptr %3, align 8, !tbaa !3
  store ptr %8, ptr %5, align 8, !tbaa !3
  %9 = load i32, ptr %4, align 4, !tbaa !23
  %10 = load ptr, ptr %5, align 8, !tbaa !3
  %11 = getelementptr inbounds nuw %struct._lv_bar_t, ptr %10, i32 0, i32 9
  %12 = trunc i32 %9 to i8
  %13 = load i8, ptr %11, align 8
  %14 = and i8 %12, 7
  %15 = and i8 %13, -8
  %16 = or i8 %15, %14
  store i8 %16, ptr %11, align 8
  %17 = load ptr, ptr %5, align 8, !tbaa !3
  %18 = getelementptr inbounds nuw %struct._lv_bar_t, ptr %17, i32 0, i32 9
  %19 = load i8, ptr %18, align 8
  %20 = and i8 %19, 7
  %21 = zext i8 %20 to i32
  %22 = icmp ne i32 %21, 2
  br i1 %22, label %23, label %29

23:                                               ; preds = %7
  %24 = load ptr, ptr %5, align 8, !tbaa !3
  %25 = getelementptr inbounds nuw %struct._lv_bar_t, ptr %24, i32 0, i32 2
  %26 = load i32, ptr %25, align 4, !tbaa !7
  %27 = load ptr, ptr %5, align 8, !tbaa !3
  %28 = getelementptr inbounds nuw %struct._lv_bar_t, ptr %27, i32 0, i32 4
  store i32 %26, ptr %28, align 4, !tbaa !16
  br label %29

29:                                               ; preds = %23, %7
  %30 = load ptr, ptr %3, align 8, !tbaa !3
  call void @lv_obj_invalidate(ptr noundef %30)
  call void @llvm.lifetime.end.p0(i64 8, ptr %5) #5
  ret void
}