; Function Attrs: nounwind uwtable
define void @lv_bar_set_mode(ptr noundef %0, i32 noundef %1) local_unnamed_addr #0 {
  %3 = getelementptr inbounds nuw i8, ptr %0, i64 152
  %4 = trunc i32 %1 to i8
  %5 = load i8, ptr %3, align 8
  %6 = and i8 %4, 7
  %7 = and i8 %5, -8
  %8 = or disjoint i8 %7, %6
  store i8 %8, ptr %3, align 8
  %9 = and i32 %1, 7
  %.not = icmp eq i32 %9, 2
  br i1 %.not, label %14, label %10

10:                                               ; preds = %2
  %11 = getelementptr inbounds nuw i8, ptr %0, i64 68
  %12 = load i32, ptr %11, align 4, !tbaa !3
  %13 = getelementptr inbounds nuw i8, ptr %0, i64 76
  store i32 %12, ptr %13, align 4, !tbaa !21
  br label %14

14:                                               ; preds = %10, %2
  tail call void @lv_obj_invalidate(ptr noundef nonnull %0) #7
  ret void
}